target datalayout = "e-m:e-p270:32:32-p271:32:32-p272:64:64-i64:64-i128:128-f80:128-n8:16:32:64-S128"
target triple = "x86_64-pc-linux-gnu"

; Function Attrs: mustprogress uwtable
define noundef i32 @_ZN10duckdb_hll12hllSparseAddEPNS_4robjEPhm(ptr noundef %0, ptr noundef %1, i64 noundef %2) #2 {
  %4 = alloca ptr, align 8
  %5 = alloca ptr, align 8
  %6 = alloca i64, align 8
  %7 = alloca i64, align 8
  %8 = alloca i8, align 1
  store ptr %0, ptr %4, align 8, !tbaa !22
  store ptr %1, ptr %5, align 8, !tbaa !11
  store i64 %2, ptr %6, align 8, !tbaa !9
  call void @llvm.lifetime.start.p0(i64 8, ptr %7) #10
  call void @llvm.lifetime.start.p0(i64 1, ptr %8) #10
  %9 = load ptr, ptr %5, align 8, !tbaa !11
  %10 = load i64, ptr %6, align 8, !tbaa !9
  %11 = call noundef i32 @_ZN10duckdb_hll9hllPatLenEPhmPl(ptr noundef %9, i64 noundef %10, ptr noundef %7)
  %12 = trunc i32 %11 to i8
  store i8 %12, ptr %8, align 1, !tbaa !15
  %13 = load ptr, ptr %4, align 8, !tbaa !22
  %14 = load i64, ptr %7, align 8, !tbaa !9
  %15 = load i8, ptr %8, align 1, !tbaa !15
  %16 = call noundef i32 @_ZN10duckdb_hll12hllSparseSetEPNS_4robjElh(ptr noundef %13, i64 noundef %14, i8 noundef zeroext %15)
  call void @llvm.lifetime.end.p0(i64 1, ptr %8) #10
  call void @llvm.lifetime.end.p0(i64 8, ptr %7) #10
  ret i32 %16
}