; Function Attrs: mustprogress uwtable
define noundef range(i32 -1, 2) i32 @_ZN10duckdb_hll12hllSparseAddEPNS_4robjEPhm(ptr noundef captures(none) %0, ptr noundef captures(address) %1, i64 noundef %2) local_unnamed_addr #3 {
  %4 = alloca i64, align 8
  call void @llvm.lifetime.start.p0(i64 8, ptr nonnull %4) #21
  %5 = call noundef i32 @_ZN10duckdb_hll9hllPatLenEPhmPl(ptr noundef %1, i64 noundef %2, ptr noundef nonnull %4)
  %6 = trunc i32 %5 to i8
  %7 = load i64, ptr %4, align 8, !tbaa !3
  %8 = tail call noundef i32 @_ZN10duckdb_hll12hllSparseSetEPNS_4robjElh(ptr noundef %0, i64 noundef %7, i8 noundef zeroext %6)
  call void @llvm.lifetime.end.p0(i64 8, ptr nonnull %4) #21
  ret i32 %8
}